target datalayout = "e-m:e-p270:32:32-p271:32:32-p272:64:64-i64:64-i128:128-f80:128-n8:16:32:64-S128"
target triple = "x86_64-pc-linux-gnu"

%struct._lv_chart_series_t = type { ptr, ptr, %struct.lv_color_t, i32, i8 }
%struct.lv_color_t = type { i8, i8, i8 }

; Function Attrs: nounwind uwtable
define void @lv_chart_set_ext_y_array(ptr noundef %0, ptr noundef %1, ptr noundef %2) #0 {
  %4 = alloca ptr, align 8
  %5 = alloca ptr, align 8
  %6 = alloca ptr, align 8
  store ptr %0, ptr %4, align 8, !tbaa !3
  store ptr %1, ptr %5, align 8, !tbaa !3
  store ptr %2, ptr %6, align 8, !tbaa !3
  br label %7

7:                                                ; preds = %3
  br label %8

8:                                                ; preds = %7
  br label %9

9:                                                ; preds = %8
  %10 = load ptr, ptr %5, align 8, !tbaa !3
  %11 = icmp ne ptr %10, null
  br i1 %11, label %16, label %12

12:                                               ; preds = %9
  br label %13

13:                                               ; preds = %12
  br label %14

14:                                               ; preds = %13
  br label %15

15:                                               ; preds = %14, %15
  br label %15

16:                                               ; preds = %9
  br label %17

17:                                               ; preds = %16
  %18 = load ptr, ptr %5, align 8, !tbaa !3
  %19 = getelementptr inbounds nuw %struct._lv_chart_series_t, ptr %18, i32 0, i32 4
  %20 = load i8, ptr %19, align 8
  %21 = lshr i8 %20, 2
  %22 = and i8 %21, 1
  %23 = zext i8 %22 to i32
  %24 = icmp ne i32 %23, 0
  br i1 %24, label %34, label %25

25:                                               ; preds = %17
  %26 = load ptr, ptr %5, align 8, !tbaa !3
  %27 = getelementptr inbounds nuw %struct._lv_chart_series_t, ptr %26, i32 0, i32 1
  %28 = load ptr, ptr %27, align 8, !tbaa !21
  %29 = icmp ne ptr %28, null
  br i1 %29, label %30, label %34

30:                                               ; preds = %25
  %31 = load ptr, ptr %5, align 8, !tbaa !3
  %32 = getelementptr inbounds nuw %struct._lv_chart_series_t, ptr %31, i32 0, i32 1
  %33 = load ptr, ptr %32, align 8, !tbaa !21
  call void @lv_free(ptr noundef %33)
  br label %34

34:                                               ; preds = %30, %25, %17
  %35 = load ptr, ptr %5, align 8, !tbaa !3
  %36 = getelementptr inbounds nuw %struct._lv_chart_series_t, ptr %35, i32 0, i32 4
  %37 = load i8, ptr %36, align 8
  %38 = and i8 %37, -5
  %39 = or i8 %38, 4
  store i8 %39, ptr %36, align 8
  %40 = load ptr, ptr %6, align 8, !tbaa !3
  %41 = load ptr, ptr %5, align 8, !tbaa !3
  %42 = getelementptr inbounds nuw %struct._lv_chart_series_t, ptr %41, i32 0, i32 1
  store ptr %40, ptr %42, align 8, !tbaa !21
  %43 = load ptr, ptr %4, align 8, !tbaa !3
  call void @lv_obj_invalidate(ptr noundef %43)
  ret void
}