; Function Attrs: nounwind uwtable
define void @lv_chart_set_ext_y_array(ptr noundef %0, ptr noundef %1, ptr noundef %2) local_unnamed_addr #0 {
  %.not = icmp eq ptr %1, null
  br i1 %.not, label %.preheader, label %4

.preheader:                                       ; preds = %3, %.preheader
  br label %.preheader

4:                                                ; preds = %3
  %5 = getelementptr inbounds nuw i8, ptr %1, i64 24
  %6 = load i8, ptr %5, align 8
  %7 = and i8 %6, 4
  %.not9 = icmp eq i8 %7, 0
  br i1 %.not9, label %8, label %12

8:                                                ; preds = %4
  %9 = getelementptr inbounds nuw i8, ptr %1, i64 8
  %10 = load ptr, ptr %9, align 8, !tbaa !18
  %.not10 = icmp eq ptr %10, null
  br i1 %.not10, label %12, label %11

11:                                               ; preds = %8
  tail call void @lv_free(ptr noundef nonnull %10) #8
  %.pre = load i8, ptr %5, align 8
  br label %12

12:                                               ; preds = %11, %8, %4
  %13 = phi i8 [ %.pre, %11 ], [ %6, %8 ], [ %6, %4 ]
  %14 = or i8 %13, 4
  store i8 %14, ptr %5, align 8
  %15 = getelementptr inbounds nuw i8, ptr %1, i64 8
  store ptr %2, ptr %15, align 8, !tbaa !18
  tail call void @lv_obj_invalidate(ptr noundef %0) #8
  ret void
}